target datalayout = "e-m:e-p270:32:32-p271:32:32-p272:64:64-i64:64-i128:128-f80:128-n8:16:32:64-S128"
target triple = "x86_64-pc-linux-gnu"

%struct.pack_opt_t = type { ptr, i32, i32, [6 x %struct.filter_info_t], i32, %struct.chunk_info_t, i32, i32, i8, i8, i64, i32, i8, i32, i32, i64, i64, i32, i32, [8 x i32], ptr, i64, i64, i64, i64, i32, i32, i64, i64, i8, i8, i8, i8 }
%struct.filter_info_t = type { i32, i32, [20 x i32], i64 }
%struct.chunk_info_t = type { [32 x i64], i32 }

@.str.39 = private unnamed_addr constant [11 x i8] c" %-27s %s\0A\00", align 1
@.str.77 = private unnamed_addr constant [20 x i8] c" %-27s  %e/%e   %s\0A\00", align 1
@.str.78 = private unnamed_addr constant [5 x i8] c"dset\00", align 1
@.str.93 = private unnamed_addr constant [2 x i8] zeroinitializer, align 1
@.str.94 = private unnamed_addr constant [7 x i8] c"ERROR \00", align 1
@.str.95 = private unnamed_addr constant [6 x i8] c"NONE \00", align 1
@.str.96 = private unnamed_addr constant [6 x i8] c"GZIP \00", align 1
@.str.97 = private unnamed_addr constant [6 x i8] c"SZIP \00", align 1
@.str.98 = private unnamed_addr constant [6 x i8] c"SHUF \00", align 1
@.str.99 = private unnamed_addr constant [6 x i8] c"FLET \00", align 1
@.str.100 = private unnamed_addr constant [6 x i8] c"NBIT \00", align 1
@.str.101 = private unnamed_addr constant [13 x i8] c"SCALEOFFSET \00", align 1
@.str.102 = private unnamed_addr constant [4 x i8] c"UD \00", align 1
@.str.103 = private unnamed_addr constant [10 x i8] c"dset     \00", align 1
@.str.104 = private unnamed_addr constant [11 x i8] c"  (%.3f:1)\00", align 1

; Function Attrs: nounwind uwtable
define internal void @print_dataset_info(i64 noundef %0, ptr noundef %1, double noundef %2, i32 noundef %3, ptr noundef %4, double noundef %5, double noundef %6) #0 {
  %8 = alloca i64, align 8
  %9 = alloca ptr, align 8
  %10 = alloca double, align 8
  %11 = alloca i32, align 4
  %12 = alloca ptr, align 8
  %13 = alloca double, align 8
  %14 = alloca double, align 8
  %15 = alloca [255 x i8], align 16
  %16 = alloca i32, align 4
  %17 = alloca i32, align 4
  %18 = alloca i32, align 4
  %19 = alloca [20 x i32], align 16
  %20 = alloca i64, align 8
  %21 = alloca [256 x i8], align 16
  %22 = alloca i32, align 4
  %23 = alloca i32, align 4
  %24 = alloca [512 x i8], align 16
  %25 = alloca [512 x i8], align 16
  store i64 %0, ptr %8, align 8, !tbaa !10
  store ptr %1, ptr %9, align 8, !tbaa !4
  store double %2, ptr %10, align 8, !tbaa !59
  store i32 %3, ptr %11, align 4, !tbaa !14
  store ptr %4, ptr %12, align 8, !tbaa !9
  store double %5, ptr %13, align 8, !tbaa !59
  store double %6, ptr %14, align 8, !tbaa !59
  call void @llvm.lifetime.start.p0(i64 255, ptr %15) #8
  call void @llvm.lifetime.start.p0(i64 4, ptr %16) #8
  call void @llvm.lifetime.start.p0(i64 4, ptr %17) #8
  call void @llvm.lifetime.start.p0(i64 4, ptr %18) #8
  call void @llvm.lifetime.start.p0(i64 80, ptr %19) #8
  call void @llvm.lifetime.start.p0(i64 8, ptr %20) #8
  call void @llvm.lifetime.start.p0(i64 256, ptr %21) #8
  call void @llvm.lifetime.start.p0(i64 4, ptr %22) #8
  %26 = getelementptr inbounds [255 x i8], ptr %15, i64 0, i64 0
  %27 = call ptr @strcpy(ptr noundef %26, ptr noundef @.str.93) #8
  %28 = load i64, ptr %8, align 8, !tbaa !10
  %29 = call i32 @H5Pget_nfilters(i64 noundef %28)
  store i32 %29, ptr %16, align 4, !tbaa !14
  %30 = icmp slt i32 %29, 0
  br i1 %30, label %31, label %32

31:                                               ; preds = %7
  store i32 1, ptr %23, align 4
  br label %122

32:                                               ; preds = %7
  store i32 0, ptr %22, align 4, !tbaa !14
  br label %33

33:                                               ; preds = %74, %32
  %34 = load i32, ptr %22, align 4, !tbaa !14
  %35 = load i32, ptr %16, align 4, !tbaa !14
  %36 = icmp slt i32 %34, %35
  br i1 %36, label %37, label %77

37:                                               ; preds = %33
  store i64 20, ptr %20, align 8, !tbaa !10
  %38 = load i64, ptr %8, align 8, !tbaa !10
  %39 = load i32, ptr %22, align 4, !tbaa !14
  %40 = getelementptr inbounds [20 x i32], ptr %19, i64 0, i64 0
  %41 = getelementptr inbounds [256 x i8], ptr %21, i64 0, i64 0
  %42 = call i32 @H5Pget_filter2(i64 noundef %38, i32 noundef %39, ptr noundef %17, ptr noundef %20, ptr noundef %40, i64 noundef 256, ptr noundef %41, ptr noundef null)
  store i32 %42, ptr %18, align 4, !tbaa !14
  %43 = icmp slt i32 %42, 0
  br i1 %43, label %44, label %47

44:                                               ; preds = %37
  %45 = getelementptr inbounds [255 x i8], ptr %15, i64 0, i64 0
  %46 = call ptr @strcat(ptr noundef %45, ptr noundef @.str.94) #8
  br label %74

47:                                               ; preds = %37
  %48 = load i32, ptr %18, align 4, !tbaa !14
  switch i32 %48, label %70 [
    i32 0, label %49
    i32 1, label %52
    i32 4, label %55
    i32 2, label %58
    i32 3, label %61
    i32 5, label %64
    i32 6, label %67
  ]

49:                                               ; preds = %47
  %50 = getelementptr inbounds [255 x i8], ptr %15, i64 0, i64 0
  %51 = call ptr @strcat(ptr noundef %50, ptr noundef @.str.95) #8
  br label %73

52:                                               ; preds = %47
  %53 = getelementptr inbounds [255 x i8], ptr %15, i64 0, i64 0
  %54 = call ptr @strcat(ptr noundef %53, ptr noundef @.str.96) #8
  br label %73

55:                                               ; preds = %47
  %56 = getelementptr inbounds [255 x i8], ptr %15, i64 0, i64 0
  %57 = call ptr @strcat(ptr noundef %56, ptr noundef @.str.97) #8
  br label %73

58:                                               ; preds = %47
  %59 = getelementptr inbounds [255 x i8], ptr %15, i64 0, i64 0
  %60 = call ptr @strcat(ptr noundef %59, ptr noundef @.str.98) #8
  br label %73

61:                                               ; preds = %47
  %62 = getelementptr inbounds [255 x i8], ptr %15, i64 0, i64 0
  %63 = call ptr @strcat(ptr noundef %62, ptr noundef @.str.99) #8
  br label %73

64:                                               ; preds = %47
  %65 = getelementptr inbounds [255 x i8], ptr %15, i64 0, i64 0
  %66 = call ptr @strcat(ptr noundef %65, ptr noundef @.str.100) #8
  br label %73

67:                                               ; preds = %47
  %68 = getelementptr inbounds [255 x i8], ptr %15, i64 0, i64 0
  %69 = call ptr @strcat(ptr noundef %68, ptr noundef @.str.101) #8
  br label %73

70:                                               ; preds = %47
  %71 = getelementptr inbounds [255 x i8], ptr %15, i64 0, i64 0
  %72 = call ptr @strcat(ptr noundef %71, ptr noundef @.str.102) #8
  br label %73

73:                                               ; preds = %70, %67, %64, %61, %58, %55, %52, %49
  br label %74

74:                                               ; preds = %73, %44
  %75 = load i32, ptr %22, align 4, !tbaa !14
  %76 = add nsw i32 %75, 1
  store i32 %76, ptr %22, align 4, !tbaa !14
  br label %33, !llvm.loop !101

77:                                               ; preds = %33
  %78 = load i32, ptr %11, align 4, !tbaa !14
  %79 = icmp ne i32 %78, 0
  br i1 %79, label %94, label %80

80:                                               ; preds = %77
  %81 = load ptr, ptr %12, align 8, !tbaa !9
  %82 = getelementptr inbounds nuw %struct.pack_opt_t, ptr %81, i32 0, i32 7
  %83 = load i32, ptr %82, align 4, !tbaa !45
  %84 = icmp eq i32 %83, 2
  br i1 %84, label %85, label %90

85:                                               ; preds = %80
  %86 = load double, ptr %13, align 8, !tbaa !59
  %87 = load double, ptr %14, align 8, !tbaa !59
  %88 = load ptr, ptr %9, align 8, !tbaa !4
  %89 = call i32 (ptr, ...) @printf(ptr noundef @.str.77, ptr noundef @.str.78, double noundef %86, double noundef %87, ptr noundef %88)
  br label %93

90:                                               ; preds = %80
  %91 = load ptr, ptr %9, align 8, !tbaa !4
  %92 = call i32 (ptr, ...) @printf(ptr noundef @.str.39, ptr noundef @.str.78, ptr noundef %91)
  br label %93

93:                                               ; preds = %90, %85
  br label %121

94:                                               ; preds = %77
  call void @llvm.lifetime.start.p0(i64 512, ptr %24) #8
  call void @llvm.lifetime.start.p0(i64 512, ptr %25) #8
  %95 = getelementptr inbounds [512 x i8], ptr %24, i64 0, i64 0
  %96 = call ptr @strcpy(ptr noundef %95, ptr noundef @.str.103) #8
  %97 = getelementptr inbounds [512 x i8], ptr %24, i64 0, i64 0
  %98 = getelementptr inbounds [255 x i8], ptr %15, i64 0, i64 0
  %99 = call ptr @strcat(ptr noundef %97, ptr noundef %98) #8
  %100 = getelementptr inbounds [512 x i8], ptr %25, i64 0, i64 0
  %101 = load double, ptr %10, align 8, !tbaa !59
  %102 = call i32 (ptr, i64, ptr, ...) @snprintf(ptr noundef %100, i64 noundef 512, ptr noundef @.str.104, double noundef %101) #8
  %103 = getelementptr inbounds [512 x i8], ptr %24, i64 0, i64 0
  %104 = getelementptr inbounds [512 x i8], ptr %25, i64 0, i64 0
  %105 = call ptr @strcat(ptr noundef %103, ptr noundef %104) #8
  %106 = load ptr, ptr %12, align 8, !tbaa !9
  %107 = getelementptr inbounds nuw %struct.pack_opt_t, ptr %106, i32 0, i32 7
  %108 = load i32, ptr %107, align 4, !tbaa !45
  %109 = icmp eq i32 %108, 2
  br i1 %109, label %110, label %116

110:                                              ; preds = %94
  %111 = getelementptr inbounds [512 x i8], ptr %24, i64 0, i64 0
  %112 = load double, ptr %13, align 8, !tbaa !59
  %113 = load double, ptr %14, align 8, !tbaa !59
  %114 = load ptr, ptr %9, align 8, !tbaa !4
  %115 = call i32 (ptr, ...) @printf(ptr noundef @.str.77, ptr noundef %111, double noundef %112, double noundef %113, ptr noundef %114)
  br label %120

116:                                              ; preds = %94
  %117 = getelementptr inbounds [512 x i8], ptr %24, i64 0, i64 0
  %118 = load ptr, ptr %9, align 8, !tbaa !4
  %119 = call i32 (ptr, ...) @printf(ptr noundef @.str.39, ptr noundef %117, ptr noundef %118)
  br label %120

120:                                              ; preds = %116, %110
  call void @llvm.lifetime.end.p0(i64 512, ptr %25) #8
  call void @llvm.lifetime.end.p0(i64 512, ptr %24) #8
  br label %121

121:                                              ; preds = %120, %93
  store i32 0, ptr %23, align 4
  br label %122

122:                                              ; preds = %121, %31
  call void @llvm.lifetime.end.p0(i64 4, ptr %22) #8
  call void @llvm.lifetime.end.p0(i64 256, ptr %21) #8
  call void @llvm.lifetime.end.p0(i64 8, ptr %20) #8
  call void @llvm.lifetime.end.p0(i64 80, ptr %19) #8
  call void @llvm.lifetime.end.p0(i64 4, ptr %18) #8
  call void @llvm.lifetime.end.p0(i64 4, ptr %17) #8
  call void @llvm.lifetime.end.p0(i64 4, ptr %16) #8
  call void @llvm.lifetime.end.p0(i64 255, ptr %15) #8
  %123 = load i32, ptr %23, align 4
  switch i32 %123, label %125 [
    i32 0, label %124
    i32 1, label %124
  ]

124:                                              ; preds = %122, %122
  ret void

125:                                              ; preds = %122
  unreachable
}