; Function Attrs: nounwind uwtable
define internal fastcc void @print_dataset_info(i64 noundef range(i64 0, -9223372036854775808) %0, ptr noundef %1, double noundef %2, i32 noundef range(i32 0, 2) %3, ptr noundef readonly captures(none) %4, double noundef %5, double noundef %6) unnamed_addr #0 {
  %8 = alloca [255 x i8], align 16
  %9 = alloca i32, align 4
  %10 = alloca [20 x i32], align 16
  %11 = alloca i64, align 8
  %12 = alloca [256 x i8], align 16
  %13 = alloca [512 x i8], align 16
  %14 = alloca [512 x i8], align 16
  call void @llvm.lifetime.start.p0(i64 255, ptr nonnull %8) #15
  call void @llvm.lifetime.start.p0(i64 4, ptr nonnull %9) #15
  call void @llvm.lifetime.start.p0(i64 80, ptr nonnull %10) #15
  call void @llvm.lifetime.start.p0(i64 8, ptr nonnull %11) #15
  call void @llvm.lifetime.start.p0(i64 256, ptr nonnull %12) #15
  store i8 0, ptr %8, align 16
  %15 = tail call i32 @H5Pget_nfilters(i64 noundef %0) #15
  %16 = icmp slt i32 %15, 0
  br i1 %16, label %51, label %.preheader

.preheader:                                       ; preds = %7
  %.not37 = icmp eq i32 %15, 0
  br i1 %.not37, label %._crit_edge, label %.lr.ph

.lr.ph:                                           ; preds = %.preheader, %29
  %.036 = phi i32 [ %30, %29 ], [ 0, %.preheader ]
  store i64 20, ptr %11, align 8, !tbaa !9
  %17 = call i32 @H5Pget_filter2(i64 noundef %0, i32 noundef %.036, ptr noundef nonnull %9, ptr noundef nonnull %11, ptr noundef nonnull %10, i64 noundef 256, ptr noundef nonnull %12, ptr noundef null) #15
  %18 = icmp slt i32 %17, 0
  %strlen34 = call i64 @strlen(ptr noundef nonnull dereferenceable(1) %8)
  %endptr35 = getelementptr inbounds i8, ptr %8, i64 %strlen34
  br i1 %18, label %19, label %20

19:                                               ; preds = %.lr.ph
  call void @llvm.memcpy.p0.p0.i64(ptr noundef nonnull align 1 dereferenceable(7) %endptr35, ptr noundef nonnull align 1 dereferenceable(7) @.str.94, i64 7, i1 false)
  br label %29

20:                                               ; preds = %.lr.ph
  switch i32 %17, label %28 [
    i32 0, label %21
    i32 1, label %22
    i32 4, label %23
    i32 2, label %24
    i32 3, label %25
    i32 5, label %26
    i32 6, label %27
  ]

21:                                               ; preds = %20
  call void @llvm.memcpy.p0.p0.i64(ptr noundef nonnull align 1 dereferenceable(6) %endptr35, ptr noundef nonnull align 1 dereferenceable(6) @.str.95, i64 6, i1 false)
  br label %29

22:                                               ; preds = %20
  call void @llvm.memcpy.p0.p0.i64(ptr noundef nonnull align 1 dereferenceable(6) %endptr35, ptr noundef nonnull align 1 dereferenceable(6) @.str.96, i64 6, i1 false)
  br label %29

23:                                               ; preds = %20
  call void @llvm.memcpy.p0.p0.i64(ptr noundef nonnull align 1 dereferenceable(6) %endptr35, ptr noundef nonnull align 1 dereferenceable(6) @.str.97, i64 6, i1 false)
  br label %29

24:                                               ; preds = %20
  call void @llvm.memcpy.p0.p0.i64(ptr noundef nonnull align 1 dereferenceable(6) %endptr35, ptr noundef nonnull align 1 dereferenceable(6) @.str.98, i64 6, i1 false)
  br label %29

25:                                               ; preds = %20
  call void @llvm.memcpy.p0.p0.i64(ptr noundef nonnull align 1 dereferenceable(6) %endptr35, ptr noundef nonnull align 1 dereferenceable(6) @.str.99, i64 6, i1 false)
  br label %29

26:                                               ; preds = %20
  call void @llvm.memcpy.p0.p0.i64(ptr noundef nonnull align 1 dereferenceable(6) %endptr35, ptr noundef nonnull align 1 dereferenceable(6) @.str.100, i64 6, i1 false)
  br label %29

27:                                               ; preds = %20
  call void @llvm.memcpy.p0.p0.i64(ptr noundef nonnull align 1 dereferenceable(13) %endptr35, ptr noundef nonnull align 1 dereferenceable(13) @.str.101, i64 13, i1 false)
  br label %29

28:                                               ; preds = %20
  store i32 2114645, ptr %endptr35, align 1
  br label %29

29:                                               ; preds = %21, %22, %23, %24, %25, %26, %27, %28, %19
  %30 = add nuw nsw i32 %.036, 1
  %exitcond.not = icmp eq i32 %30, %15
  br i1 %exitcond.not, label %._crit_edge, label %.lr.ph, !llvm.loop !97

._crit_edge:                                      ; preds = %29, %.preheader
  %.not = icmp eq i32 %3, 0
  br i1 %.not, label %31, label %39

31:                                               ; preds = %._crit_edge
  %32 = getelementptr inbounds nuw i8, ptr %4, i64 868
  %33 = load i32, ptr %32, align 4, !tbaa !43
  %34 = icmp eq i32 %33, 2
  br i1 %34, label %35, label %37

35:                                               ; preds = %31
  %36 = call i32 (ptr, ...) @printf(ptr noundef nonnull dereferenceable(1) @.str.77, ptr noundef nonnull @.str.78, double noundef %5, double noundef %6, ptr noundef %1)
  br label %51

37:                                               ; preds = %31
  %38 = call i32 (ptr, ...) @printf(ptr noundef nonnull dereferenceable(1) @.str.39, ptr noundef nonnull @.str.78, ptr noundef %1)
  br label %51

39:                                               ; preds = %._crit_edge
  call void @llvm.lifetime.start.p0(i64 512, ptr nonnull %13) #15
  call void @llvm.lifetime.start.p0(i64 512, ptr nonnull %14) #15
  call void @llvm.memcpy.p0.p0.i64(ptr noundef nonnull align 16 dereferenceable(10) %13, ptr noundef nonnull align 1 dereferenceable(10) @.str.103, i64 10, i1 false) #15
  %40 = call ptr @strcat(ptr noundef nonnull dereferenceable(1) %13, ptr noundef nonnull dereferenceable(1) %8) #15
  %41 = call i32 (ptr, i64, ptr, ...) @snprintf(ptr noundef nonnull dereferenceable(1) %14, i64 noundef 512, ptr noundef nonnull @.str.104, double noundef %2) #15
  %42 = call ptr @strcat(ptr noundef nonnull dereferenceable(1) %13, ptr noundef nonnull dereferenceable(1) %14) #15
  %43 = getelementptr inbounds nuw i8, ptr %4, i64 868
  %44 = load i32, ptr %43, align 4, !tbaa !43
  %45 = icmp eq i32 %44, 2
  br i1 %45, label %46, label %48

46:                                               ; preds = %39
  %47 = call i32 (ptr, ...) @printf(ptr noundef nonnull dereferenceable(1) @.str.77, ptr noundef nonnull %13, double noundef %5, double noundef %6, ptr noundef %1)
  br label %50

48:                                               ; preds = %39
  %49 = call i32 (ptr, ...) @printf(ptr noundef nonnull dereferenceable(1) @.str.39, ptr noundef nonnull %13, ptr noundef %1)
  br label %50

50:                                               ; preds = %48, %46
  call void @llvm.lifetime.end.p0(i64 512, ptr nonnull %14) #15
  call void @llvm.lifetime.end.p0(i64 512, ptr nonnull %13) #15
  br label %51

51:                                               ; preds = %50, %37, %35, %7
  call void @llvm.lifetime.end.p0(i64 256, ptr nonnull %12) #15
  call void @llvm.lifetime.end.p0(i64 8, ptr nonnull %11) #15
  call void @llvm.lifetime.end.p0(i64 80, ptr nonnull %10) #15
  call void @llvm.lifetime.end.p0(i64 4, ptr nonnull %9) #15
  call void @llvm.lifetime.end.p0(i64 255, ptr nonnull %8) #15
  ret void
}